; Function Attrs: mustprogress uwtable
define noundef zeroext i1 @_ZNK3gmx19DeviceStreamManager13streamIsValidENS_16DeviceStreamTypeE(ptr nocapture noundef nonnull readonly align 8 dereferenceable(8) %0, i32 noundef %1) local_unnamed_addr #0 align 2 {
  %3 = load ptr, ptr %0, align 8
  %4 = getelementptr inbounds i8, ptr %3, i64 8
  %5 = sext i32 %1 to i64
  %6 = getelementptr inbounds [5 x %"class.std::unique_ptr"], ptr %4, i64 0, i64 %5
  %7 = load ptr, ptr %6, align 8
  %.not = icmp eq ptr %7, null
  br i1 %.not, label %10, label %8

8:                                                ; preds = %2
  %9 = tail call noundef zeroext i1 @_ZNK12DeviceStream7isValidEv(ptr noundef nonnull align 1 dereferenceable(1) %7)
  br label %10

10:                                               ; preds = %8, %2
  %11 = phi i1 [ false, %2 ], [ %9, %8 ]
  ret i1 %11
}